; Function Attrs: mustprogress nofree norecurse nosync nounwind willreturn memory(argmem: write) uwtable
define dso_local void @PortalDefineQuery(ptr noundef writeonly captures(none) initializes((8, 16), (56, 68), (72, 76), (80, 104), (128, 132)) %0, ptr noundef %1, ptr noundef %2, i32 noundef %3, ptr noundef %4, ptr noundef %5) local_unnamed_addr #6 {
  %7 = getelementptr inbounds nuw i8, ptr %0, i64 8
  store ptr %1, ptr %7, align 8
  %8 = getelementptr inbounds nuw i8, ptr %0, i64 56
  store ptr %2, ptr %8, align 8
  %9 = getelementptr inbounds nuw i8, ptr %0, i64 72
  store i32 %3, ptr %9, align 8
  %10 = getelementptr inbounds nuw i8, ptr %0, i64 80
  store i64 0, ptr %10, align 8
  %11 = getelementptr inbounds nuw i8, ptr %0, i64 64
  store i32 %3, ptr %11, align 8
  %12 = getelementptr inbounds nuw i8, ptr %0, i64 88
  store ptr %4, ptr %12, align 8
  %13 = getelementptr inbounds nuw i8, ptr %0, i64 96
  store ptr %5, ptr %13, align 8
  %14 = getelementptr inbounds nuw i8, ptr %0, i64 128
  store i32 1, ptr %14, align 8
  ret void
}